; Function Attrs: mustprogress nounwind willreturn uwtable
define void @_ZN4pkpy15pool128_deallocEPv(ptr noundef %0) local_unnamed_addr #6 personality ptr @__gxx_personality_v0 {
  %2 = getelementptr inbounds i8, ptr %0, i64 -8
  %3 = load ptr, ptr %2, align 8
  %4 = icmp eq ptr %3, null
  br i1 %4, label %5, label %6

5:                                                ; preds = %1
  tail call void @free(ptr noundef nonnull %2) #18
  br label %_ZN4pkpy10MemoryPoolILi128EE7deallocEPv.exit

6:                                                ; preds = %1
  %7 = getelementptr inbounds i8, ptr %3, i64 294928
  %8 = load i32, ptr %7, align 8
  %9 = icmp eq i32 %8, 0
  br i1 %9, label %10, label %27

10:                                               ; preds = %6
  %11 = getelementptr inbounds i8, ptr %3, i64 8
  %12 = load ptr, ptr %11, align 8
  %13 = load ptr, ptr %3, align 8
  %14 = getelementptr inbounds i8, ptr %13, i64 8
  store ptr %12, ptr %14, align 8
  %15 = load ptr, ptr %3, align 8
  store ptr %15, ptr %12, align 8
  %16 = load i32, ptr getelementptr inbounds (i8, ptr @_ZN4pkpyL7pool128E, i64 40), align 8
  %17 = add nsw i32 %16, -1
  store i32 %17, ptr getelementptr inbounds (i8, ptr @_ZN4pkpyL7pool128E, i64 40), align 8
  store ptr getelementptr inbounds (i8, ptr @_ZN4pkpyL7pool128E, i64 8), ptr %3, align 8
  %18 = load ptr, ptr getelementptr inbounds (i8, ptr @_ZN4pkpyL7pool128E, i64 16), align 8
  store ptr %18, ptr %11, align 8
  store ptr %3, ptr %18, align 8
  store ptr %3, ptr getelementptr inbounds (i8, ptr @_ZN4pkpyL7pool128E, i64 16), align 8
  %19 = load i32, ptr @_ZN4pkpyL7pool128E, align 8
  %20 = add nsw i32 %19, 1
  store i32 %20, ptr @_ZN4pkpyL7pool128E, align 8
  %21 = getelementptr inbounds i8, ptr %3, i64 278544
  %22 = load i32, ptr %7, align 8
  %23 = sext i32 %22 to i64
  %24 = getelementptr inbounds [2048 x ptr], ptr %21, i64 0, i64 %23
  store ptr %2, ptr %24, align 8
  %25 = load i32, ptr %7, align 8
  %26 = add nsw i32 %25, 1
  store i32 %26, ptr %7, align 8
  br label %_ZN4pkpy10MemoryPoolILi128EE7deallocEPv.exit

27:                                               ; preds = %6
  %28 = getelementptr inbounds i8, ptr %3, i64 278544
  %29 = sext i32 %8 to i64
  %30 = getelementptr inbounds [2048 x ptr], ptr %28, i64 0, i64 %29
  store ptr %2, ptr %30, align 8
  %31 = load i32, ptr %7, align 8
  %32 = add nsw i32 %31, 1
  store i32 %32, ptr %7, align 8
  br label %_ZN4pkpy10MemoryPoolILi128EE7deallocEPv.exit

_ZN4pkpy10MemoryPoolILi128EE7deallocEPv.exit:     ; preds = %27, %10, %5
  ret void
}